(dp0
S'test_account'
p1
(imendeley_client
MendeleyAccount
p2
(dp3
S'access_token'
p4
ccopy_reg
_reconstructor
p5
(coauth2
Token
p6
c__builtin__
object
p7
Ntp8
Rp9
(dp10
S'secret'
p11
Va93f540e3d48dcd25a146078d9c257b8
p12
sS'key'
p13
V716e97f08f6e1147f781335189b109c3052a11902
p14
sbsbs.